Certificate:
    Data:
        Version: 3 (0x2)
        Serial Number:
            ae:ee:9b:fb:dd:c8:7d:53:b3:86:77:85:f6:a2:cf:0b
    Signature Algorithm: sha256WithRSAEncryption
        Issuer: CN=vpndemo.com
        Validity
            Not Before: Jan 25 06:47:42 2022 GMT
            Not After : Apr 29 06:47:42 2024 GMT
        Subject: CN=user.vpndemo.com
        Subject Public Key Info:
            Public Key Algorithm: rsaEncryption
                Public-Key: (2048 bit)
                Modulus:
                    00:bb:13:33:3c:31:fa:24:fc:d7:10:9e:5d:68:03:
                    c8:9a:95:01:99:77:5a:67:01:b5:1f:0a:57:69:51:
                    83:bf:a9:53:14:0e:08:89:c6:d9:a1:45:a6:a0:7d:
                    4c:5b:fd:3c:5b:b8:b6:1d:52:8d:e7:5d:47:cb:3f:
                    31:9a:42:b9:ea:7d:ba:3b:be:9d:98:48:d6:92:27:
                    7f:70:b7:fe:e7:b2:75:1c:d5:aa:96:eb:c3:64:95:
                    49:03:ba:a6:b8:b7:0d:d9:4c:aa:1d:b7:93:a1:09:
                    d0:d1:a6:20:52:72:e0:45:7c:6e:e5:9c:bf:50:50:
                    ae:4d:a2:70:24:fc:84:5f:1e:0f:fe:24:b7:a0:e1:
                    f0:db:41:23:55:07:43:a9:9b:74:fa:26:65:df:ce:
                    a0:31:1f:23:7e:54:b8:63:09:e8:7b:10:6f:a3:bb:
                    05:7b:dc:33:c6:ba:28:1a:8f:f4:3e:ea:82:70:63:
                    7e:09:74:c6:33:03:16:d3:cd:a4:54:db:2f:59:16:
                    8d:e0:96:aa:6c:44:c2:19:79:18:d9:09:c2:72:7c:
                    b8:66:a4:ee:ab:84:ba:c4:af:f0:f3:73:7e:b5:1d:
                    4e:12:89:fd:07:04:39:9c:10:8a:53:32:a5:3c:07:
                    83:68:63:07:e2:a6:36:38:37:a0:1a:29:ad:4d:6e:
                    89:c5
                Exponent: 65537 (0x10001)
        X509v3 extensions:
            X509v3 Basic Constraints: 
                CA:FALSE
            X509v3 Subject Key Identifier: 
                21:B6:37:DE:64:C6:1B:B4:78:AB:11:1D:77:64:C6:9F:6C:55:38:52
            X509v3 Authority Key Identifier: 
                keyid:6F:18:CF:A3:C9:1E:33:25:30:02:10:C5:C9:97:16:41:15:47:B5:E5
                DirName:/CN=vpndemo.com
                serial:94:A1:8E:F3:7C:B9:31:B5

            X509v3 Extended Key Usage: 
                TLS Web Client Authentication
            X509v3 Key Usage: 
                Digital Signature
    Signature Algorithm: sha256WithRSAEncryption
         2f:da:b2:2c:d8:b3:fe:10:12:54:46:bc:26:79:3e:a8:98:36:
         36:89:63:c2:08:19:27:b4:83:f2:54:fe:e8:0a:6c:d8:bb:57:
         64:e2:b0:86:12:9d:bf:b3:3c:e5:1e:8b:6e:6e:18:f8:96:98:
         d5:b7:5e:bd:c5:0e:4f:17:d0:20:59:22:ad:d7:f0:84:81:6c:
         e2:52:f2:8a:18:88:42:5e:58:0a:99:32:d1:ae:e0:e0:89:41:
         93:c9:4a:23:d7:04:a3:f1:0e:4f:38:49:d4:0d:d0:65:2c:56:
         fd:6c:7c:2b:2b:05:49:f2:a6:5c:e6:55:a0:a8:ac:61:a5:45:
         5e:fd:39:02:6c:72:9d:2c:0e:49:a6:ec:1e:6e:0a:4a:3a:49:
         72:44:60:3e:29:70:50:7a:75:d0:11:5e:22:b1:52:a3:4e:d6:
         b8:40:33:40:5b:ee:86:0c:d7:75:70:7d:21:b7:02:ff:74:4b:
         71:e6:de:33:b2:69:26:a0:43:28:0e:9d:ca:f6:33:1f:52:00:
         5b:47:98:eb:91:35:29:35:bd:9b:c9:4d:d1:5d:0a:e9:2d:f0:
         2d:57:9c:d3:cf:a6:41:08:ac:8a:38:be:93:3c:7f:74:a9:07:
         e3:70:36:21:86:41:a6:fe:6f:40:1a:6c:04:82:09:52:42:10:
         29:d6:b5:06
-----BEGIN CERTIFICATE-----
MIIDVDCCAjygAwIBAgIRAK7um/vdyH1Ts4Z3hfaizwswDQYJKoZIhvcNAQELBQAw
FjEUMBIGA1UEAwwLdnBuZGVtby5jb20wHhcNMjIwMTI1MDY0NzQyWhcNMjQwNDI5
MDY0NzQyWjAbMRkwFwYDVQQDDBB1c2VyLnZwbmRlbW8uY29tMIIBIjANBgkqhkiG
9w0BAQEFAAOCAQ8AMIIBCgKCAQEAuxMzPDH6JPzXEJ5daAPImpUBmXdaZwG1HwpX
aVGDv6lTFA4IicbZoUWmoH1MW/08W7i2HVKN511Hyz8xmkK56n26O76dmEjWkid/
cLf+57J1HNWqluvDZJVJA7qmuLcN2UyqHbeToQnQ0aYgUnLgRXxu5Zy/UFCuTaJw
JPyEXx4P/iS3oOHw20EjVQdDqZt0+iZl386gMR8jflS4YwnoexBvo7sFe9wzxroo
Go/0PuqCcGN+CXTGMwMW082kVNsvWRaN4JaqbETCGXkY2QnCcny4ZqTuq4S6xK/w
83N+tR1OEon9BwQ5nBCKUzKlPAeDaGMH4qY2ODegGimtTW6JxQIDAQABo4GXMIGU
MAkGA1UdEwQCMAAwHQYDVR0OBBYEFCG2N95kxhu0eKsRHXdkxp9sVThSMEYGA1Ud
IwQ/MD2AFG8Yz6PJHjMlMAIQxcmXFkEVR7XloRqkGDAWMRQwEgYDVQQDDAt2cG5k
ZW1vLmNvbYIJAJShjvN8uTG1MBMGA1UdJQQMMAoGCCsGAQUFBwMCMAsGA1UdDwQE
AwIHgDANBgkqhkiG9w0BAQsFAAOCAQEAL9qyLNiz/hASVEa8Jnk+qJg2NoljwggZ
J7SD8lT+6Aps2LtXZOKwhhKdv7M85R6Lbm4Y+JaY1bdevcUOTxfQIFkirdfwhIFs
4lLyihiIQl5YCpky0a7g4IlBk8lKI9cEo/EOTzhJ1A3QZSxW/Wx8KysFSfKmXOZV
oKisYaVFXv05AmxynSwOSabsHm4KSjpJckRgPilwUHp10BFeIrFSo07WuEAzQFvu
hgzXdXB9IbcC/3RLcebeM7JpJqBDKA6dyvYzH1IAW0eY65E1KTW9m8lN0V0K6S3w
LVec08+mQQisiji+kzx/dKkH43A2IYZBpv5vQBpsBIIJUkIQKda1Bg==
-----END CERTIFICATE-----
