Certificate:
    Data:
        Version: 3 (0x2)
        Serial Number:
            7c:64:a6:cf:54:ea:2d:55:a2:f2:56:3b:a9:48:83:1b
    Signature Algorithm: sha256WithRSAEncryption
        Issuer: CN=vpndemo.com
        Validity
            Not Before: Jan 25 06:47:08 2022 GMT
            Not After : Apr 29 06:47:08 2024 GMT
        Subject: CN=vpndemo.com
        Subject Public Key Info:
            Public Key Algorithm: rsaEncryption
                Public-Key: (2048 bit)
                Modulus:
                    00:df:2a:f4:7e:99:47:dc:db:fd:63:fa:f9:f4:d3:
                    28:68:53:9a:40:1f:81:ca:fd:8a:f4:f4:29:4d:f2:
                    4e:39:b4:a5:b3:2c:75:31:93:c8:3e:cb:56:be:dd:
                    83:c9:ab:82:ae:76:8c:1b:ac:3c:6f:2b:d2:37:c2:
                    94:a9:fc:1c:81:ab:e0:e6:c1:c0:5f:1b:b3:14:4f:
                    3f:a3:0f:3f:b5:b6:54:fb:2c:71:80:38:6b:b9:31:
                    c3:ed:05:57:19:07:d4:7e:4c:e7:91:bc:52:43:e5:
                    87:0f:ea:2e:67:cf:8b:c6:21:b2:34:04:f1:84:ad:
                    ef:67:26:d1:51:c5:59:1f:76:74:6e:3e:13:fa:57:
                    e2:e0:93:3a:dc:8f:7d:fb:2b:b4:7f:25:95:8c:12:
                    1f:fd:84:89:9f:e4:c3:28:30:7d:96:70:8a:8f:a8:
                    9a:88:d6:ab:d5:d8:e5:c9:6d:6a:72:48:83:7a:c1:
                    67:2d:3e:77:75:8c:9f:5a:6c:93:23:55:f3:72:12:
                    1d:f8:08:0c:01:89:fa:dd:e7:fe:ab:bb:9c:ef:1f:
                    d1:88:cf:ba:4e:69:3e:f5:63:a6:ab:35:fb:eb:aa:
                    9e:28:08:aa:70:7c:84:06:d1:7b:ca:cb:e2:75:57:
                    aa:6a:15:f2:83:83:8d:3a:72:ec:54:93:c9:ca:d7:
                    a2:3d
                Exponent: 65537 (0x10001)
        X509v3 extensions:
            X509v3 Basic Constraints: 
                CA:FALSE
            X509v3 Subject Key Identifier: 
                A3:5E:FB:D5:F4:95:92:05:2F:C2:CE:C2:B6:93:04:7C:3A:FF:3E:C6
            X509v3 Authority Key Identifier: 
                keyid:6F:18:CF:A3:C9:1E:33:25:30:02:10:C5:C9:97:16:41:15:47:B5:E5
                DirName:/CN=vpndemo.com
                serial:94:A1:8E:F3:7C:B9:31:B5

            X509v3 Extended Key Usage: 
                TLS Web Server Authentication
            X509v3 Key Usage: 
                Digital Signature, Key Encipherment
            X509v3 Subject Alternative Name: 
                DNS:vpndemo.com
    Signature Algorithm: sha256WithRSAEncryption
         13:2b:07:ff:66:a1:9c:ec:1b:99:d7:5f:3e:67:79:c1:6c:f5:
         94:13:0f:c2:c0:c3:7f:46:7f:c2:1b:bd:fd:e0:6e:65:8b:e9:
         f0:51:54:e2:fd:52:0c:18:c5:9e:b0:88:c9:d8:25:00:6a:9d:
         9d:6e:43:43:46:24:fa:a9:3b:c1:1f:0c:80:6f:25:45:f7:10:
         d9:2b:3f:ea:c4:91:26:e9:de:32:eb:f5:60:3a:a0:87:f0:c8:
         4a:a5:ac:0c:f5:c2:79:fe:68:9b:57:65:ef:54:77:83:ad:74:
         f9:18:69:d6:82:67:38:a2:2e:8a:ec:95:33:4f:88:8f:f0:07:
         bf:c7:99:63:47:62:e8:8a:aa:43:58:47:73:8f:05:48:e7:a2:
         36:69:36:74:79:02:34:0f:10:09:1c:de:8d:fe:da:da:1e:6b:
         d0:fd:d9:16:a0:fd:e5:98:4c:56:4c:79:47:9b:e4:da:46:e1:
         4e:6a:26:2b:00:66:67:ec:56:91:53:e0:81:f3:68:29:e7:66:
         99:34:76:c7:0c:0d:4e:fe:fe:33:57:e5:a7:aa:5d:a3:14:cb:
         1e:26:b9:c4:59:3f:88:18:44:b8:98:fa:36:24:f5:c0:0b:85:
         cb:34:d4:fb:1a:fa:a2:f8:f3:38:5c:0d:b5:77:77:aa:e6:ae:
         4b:cc:fa:3f
-----BEGIN CERTIFICATE-----
MIIDZjCCAk6gAwIBAgIQfGSmz1TqLVWi8lY7qUiDGzANBgkqhkiG9w0BAQsFADAW
MRQwEgYDVQQDDAt2cG5kZW1vLmNvbTAeFw0yMjAxMjUwNjQ3MDhaFw0yNDA0Mjkw
NjQ3MDhaMBYxFDASBgNVBAMMC3ZwbmRlbW8uY29tMIIBIjANBgkqhkiG9w0BAQEF
AAOCAQ8AMIIBCgKCAQEA3yr0fplH3Nv9Y/r59NMoaFOaQB+Byv2K9PQpTfJOObSl
syx1MZPIPstWvt2DyauCrnaMG6w8byvSN8KUqfwcgavg5sHAXxuzFE8/ow8/tbZU
+yxxgDhruTHD7QVXGQfUfkznkbxSQ+WHD+ouZ8+LxiGyNATxhK3vZybRUcVZH3Z0
bj4T+lfi4JM63I99+yu0fyWVjBIf/YSJn+TDKDB9lnCKj6iaiNar1djlyW1qckiD
esFnLT53dYyfWmyTI1XzchId+AgMAYn63ef+q7uc7x/RiM+6Tmk+9WOmqzX766qe
KAiqcHyEBtF7ysvidVeqahXyg4ONOnLsVJPJyteiPQIDAQABo4GvMIGsMAkGA1Ud
EwQCMAAwHQYDVR0OBBYEFKNe+9X0lZIFL8LOwraTBHw6/z7GMEYGA1UdIwQ/MD2A
FG8Yz6PJHjMlMAIQxcmXFkEVR7XloRqkGDAWMRQwEgYDVQQDDAt2cG5kZW1vLmNv
bYIJAJShjvN8uTG1MBMGA1UdJQQMMAoGCCsGAQUFBwMBMAsGA1UdDwQEAwIFoDAW
BgNVHREEDzANggt2cG5kZW1vLmNvbTANBgkqhkiG9w0BAQsFAAOCAQEAEysH/2ah
nOwbmddfPmd5wWz1lBMPwsDDf0Z/whu9/eBuZYvp8FFU4v1SDBjFnrCIydglAGqd
nW5DQ0Yk+qk7wR8MgG8lRfcQ2Ss/6sSRJuneMuv1YDqgh/DISqWsDPXCef5om1dl
71R3g610+Rhp1oJnOKIuiuyVM0+Ij/AHv8eZY0di6IqqQ1hHc48FSOeiNmk2dHkC
NA8QCRzejf7a2h5r0P3ZFqD95ZhMVkx5R5vk2kbhTmomKwBmZ+xWkVPggfNoKedm
mTR2xwwNTv7+M1flp6pdoxTLHia5xFk/iBhEuJj6NiT1wAuFyzTU+xr6ovjzOFwN
tXd3quauS8z6Pw==
-----END CERTIFICATE-----
