Certificate:
    Data:
        Version: 3 (0x2)
        Serial Number:
            59:4c:a3:d3:42:95:5a:35:2a:40:8b:41:a7:cc:05:68
    Signature Algorithm: sha256WithRSAEncryption
        Issuer: CN=ChangeMe
        Validity
            Not Before: Apr  4 06:36:42 2022 GMT
            Not After : Jul  7 06:36:42 2024 GMT
        Subject: CN=client1.vpn.ibm.com
        Subject Public Key Info:
            Public Key Algorithm: rsaEncryption
                Public-Key: (2048 bit)
                Modulus:
                    00:9d:d9:90:59:2c:f4:6e:29:72:db:02:11:4e:12:
                    43:a6:2c:de:5b:93:01:c4:0d:06:40:41:b6:8a:5d:
                    4f:56:e9:b3:da:f4:fb:55:53:11:e9:74:27:16:1e:
                    ba:b2:15:6e:6f:11:ed:83:43:4e:f7:6f:18:1e:6a:
                    b1:74:d2:d0:60:ea:9b:d1:24:6f:99:6e:ed:a1:9f:
                    06:eb:ce:99:3d:35:1d:08:38:32:9c:65:05:43:e0:
                    3e:ba:ff:a6:e9:e0:7e:f9:ed:cb:16:a8:3c:b8:bf:
                    0c:ad:37:8f:43:6f:e0:b4:98:46:af:f1:49:30:cf:
                    24:6b:28:75:34:8c:17:ce:a1:c4:38:c4:d6:bf:ab:
                    6e:19:b1:25:43:34:ea:e1:ad:12:2b:80:76:37:a3:
                    75:e0:f7:d3:e9:5b:9e:e6:1c:30:0d:9a:1d:75:d8:
                    fb:20:21:ac:6c:ea:d7:e1:b9:f7:4b:cd:06:ee:ec:
                    b6:f5:36:33:51:f7:e2:76:6d:d5:2e:a9:a1:93:40:
                    62:c5:67:b1:d6:a0:0f:60:ef:ab:66:a9:e2:5b:d3:
                    41:2e:69:c8:74:4e:6e:72:76:d8:58:6a:b6:05:d0:
                    2d:4a:9e:84:8e:d8:8b:ec:3b:84:cd:f7:9c:ac:45:
                    04:f2:40:ab:ad:15:ec:92:71:82:e7:df:a7:dd:f7:
                    9f:4d
                Exponent: 65537 (0x10001)
        X509v3 extensions:
            X509v3 Basic Constraints: 
                CA:FALSE
            X509v3 Subject Key Identifier: 
                FD:36:5A:BB:52:93:89:6C:D4:C2:18:53:15:10:08:C1:52:AE:F4:B9
            X509v3 Authority Key Identifier: 
                keyid:33:84:36:C4:6F:27:1F:AC:22:5F:B5:0C:36:97:A7:52:57:F7:DD:0B
                DirName:/CN=ChangeMe
                serial:B7:8A:6E:2F:77:74:C1:C9

            X509v3 Extended Key Usage: 
                TLS Web Client Authentication
            X509v3 Key Usage: 
                Digital Signature
    Signature Algorithm: sha256WithRSAEncryption
         33:fd:db:44:24:b2:d9:58:8d:a2:35:74:5e:1c:99:8c:28:66:
         f9:a2:bb:92:7a:ac:ef:d4:19:6f:7a:20:8d:40:46:d6:f8:6c:
         98:e3:64:1b:76:56:02:61:76:42:7a:12:d1:11:a0:2b:37:e6:
         2d:aa:a3:b6:12:d1:77:9c:32:03:88:a4:6c:c9:d8:c3:26:67:
         3a:4f:a2:d5:14:99:5a:54:f1:30:bd:6f:f5:31:2b:2c:5c:42:
         a2:14:be:ee:aa:aa:a0:1b:9c:eb:15:75:2b:96:e4:c5:b3:1d:
         c4:6e:ea:8b:53:c9:31:03:f9:89:da:9f:99:b7:5e:1c:b7:ea:
         89:7f:7a:d1:be:cf:7d:02:84:b7:89:ce:6f:f8:43:e0:30:b2:
         da:ad:a1:32:df:e5:85:96:43:10:3d:db:8e:2f:70:52:54:ee:
         30:6a:96:8a:82:27:ff:43:4a:0e:bb:a4:13:21:3a:c1:52:bc:
         48:22:26:95:05:2f:58:7d:31:04:ce:61:c2:d3:87:19:26:11:
         96:bb:bd:54:e5:bc:8e:d2:b3:1e:24:da:3c:4b:63:48:36:3f:
         16:57:5b:42:be:53:b9:bf:74:d1:06:0e:09:1d:ab:70:82:cc:
         02:5d:3e:62:72:62:e2:c0:e9:82:4a:77:ef:3b:da:96:b4:d4:
         bc:90:f1:6a
-----BEGIN CERTIFICATE-----
MIIDUDCCAjigAwIBAgIQWUyj00KVWjUqQItBp8wFaDANBgkqhkiG9w0BAQsFADAT
MREwDwYDVQQDDAhDaGFuZ2VNZTAeFw0yMjA0MDQwNjM2NDJaFw0yNDA3MDcwNjM2
NDJaMB4xHDAaBgNVBAMME2NsaWVudDEudnBuLmlibS5jb20wggEiMA0GCSqGSIb3
DQEBAQUAA4IBDwAwggEKAoIBAQCd2ZBZLPRuKXLbAhFOEkOmLN5bkwHEDQZAQbaK
XU9W6bPa9PtVUxHpdCcWHrqyFW5vEe2DQ073bxgearF00tBg6pvRJG+Zbu2hnwbr
zpk9NR0IODKcZQVD4D66/6bp4H757csWqDy4vwytN49Db+C0mEav8UkwzyRrKHU0
jBfOocQ4xNa/q24ZsSVDNOrhrRIrgHY3o3Xg99PpW57mHDANmh112PsgIaxs6tfh
ufdLzQbu7Lb1NjNR9+J2bdUuqaGTQGLFZ7HWoA9g76tmqeJb00Euach0Tm5ydthY
arYF0C1KnoSO2IvsO4TN95ysRQTyQKutFeyScYLn36fd959NAgMBAAGjgZQwgZEw
CQYDVR0TBAIwADAdBgNVHQ4EFgQU/TZau1KTiWzUwhhTFRAIwVKu9LkwQwYDVR0j
BDwwOoAUM4Q2xG8nH6wiX7UMNpenUlf33QuhF6QVMBMxETAPBgNVBAMMCENoYW5n
ZU1lggkAt4puL3d0wckwEwYDVR0lBAwwCgYIKwYBBQUHAwIwCwYDVR0PBAQDAgeA
MA0GCSqGSIb3DQEBCwUAA4IBAQAz/dtEJLLZWI2iNXReHJmMKGb5oruSeqzv1Blv
eiCNQEbW+GyY42QbdlYCYXZCehLREaArN+YtqqO2EtF3nDIDiKRsydjDJmc6T6LV
FJlaVPEwvW/1MSssXEKiFL7uqqqgG5zrFXUrluTFsx3EbuqLU8kxA/mJ2p+Zt14c
t+qJf3rRvs99AoS3ic5v+EPgMLLaraEy3+WFlkMQPduOL3BSVO4wapaKgif/Q0oO
u6QTITrBUrxIIiaVBS9YfTEEzmHC04cZJhGWu71U5byO0rMeJNo8S2NINj8WV1tC
vlO5v3TRBg4JHatwgswCXT5icmLiwOmCSnfvO9qWtNS8kPFq
-----END CERTIFICATE-----
