Certificate:
    Data:
        Version: 3 (0x2)
        Serial Number:
            68:39:ef:47:77:60:98:35:94:37:a9:c0:36:ca:08:f9
    Signature Algorithm: sha256WithRSAEncryption
        Issuer: CN=ChangeMe
        Validity
            Not Before: Apr  4 06:36:42 2022 GMT
            Not After : Jul  7 06:36:42 2024 GMT
        Subject: CN=vpn-server.vpn.ibm.com
        Subject Public Key Info:
            Public Key Algorithm: rsaEncryption
                Public-Key: (2048 bit)
                Modulus:
                    00:cd:44:2b:42:0d:81:47:eb:00:20:d5:cf:ab:3a:
                    1b:86:6e:20:62:68:c9:0f:07:95:63:09:cd:12:a5:
                    7a:b4:b8:94:7c:a7:05:e7:20:78:5b:fa:91:0f:98:
                    b5:d4:1a:37:a6:57:15:78:e6:25:b8:a5:d2:17:06:
                    98:a3:6a:8a:b0:ac:d6:a6:17:ca:20:29:19:e0:87:
                    b3:a7:3e:0a:91:ef:76:9c:d7:ce:58:9c:4b:ff:30:
                    14:ab:04:c1:90:c6:91:54:af:c1:40:fb:a5:d3:cc:
                    9f:1d:e9:85:3d:99:64:b5:0f:2f:73:18:96:e8:c9:
                    2e:81:c2:c0:55:27:fd:09:ae:a0:b0:0b:4c:19:58:
                    f2:63:58:e2:b7:48:aa:00:b2:d1:a8:89:f9:6f:e9:
                    4f:5c:2b:62:0a:52:ab:e7:d0:2c:3f:7e:fc:05:fb:
                    15:94:94:90:2d:14:40:c2:97:5f:f6:23:43:9b:d8:
                    a3:94:ce:41:79:1f:5b:2b:76:27:68:6c:0d:ee:7b:
                    03:fb:aa:05:d1:07:d6:ba:6a:19:22:b9:93:9b:e5:
                    91:49:5d:5e:84:54:c1:54:61:3f:c0:9e:e1:62:3b:
                    94:69:0d:b9:08:d9:5d:03:eb:cb:d3:54:eb:12:a5:
                    58:8d:a7:1f:80:c7:c2:0e:5b:6c:4e:1b:c0:26:1e:
                    dc:bf
                Exponent: 65537 (0x10001)
        X509v3 extensions:
            X509v3 Basic Constraints: 
                CA:FALSE
            X509v3 Subject Key Identifier: 
                7A:CE:0F:A8:33:DF:47:CE:D3:6A:0F:A2:B3:73:46:D3:B3:08:24:4C
            X509v3 Authority Key Identifier: 
                keyid:33:84:36:C4:6F:27:1F:AC:22:5F:B5:0C:36:97:A7:52:57:F7:DD:0B
                DirName:/CN=ChangeMe
                serial:B7:8A:6E:2F:77:74:C1:C9

            X509v3 Extended Key Usage: 
                TLS Web Server Authentication
            X509v3 Key Usage: 
                Digital Signature, Key Encipherment
            X509v3 Subject Alternative Name: 
                DNS:vpn-server.vpn.ibm.com
    Signature Algorithm: sha256WithRSAEncryption
         d1:06:d7:0c:62:85:1b:df:ef:69:42:4c:c8:66:33:5f:d6:3b:
         f4:e0:3d:b9:75:f8:b7:e5:09:ad:f1:30:c8:09:10:bf:a8:89:
         65:8c:e9:90:cc:9f:7a:8d:07:e8:2e:5a:92:0f:b0:f0:62:78:
         5b:3d:50:c4:02:1b:0d:ce:2f:f9:ac:ba:74:aa:c7:3d:ca:ae:
         50:26:9a:b4:60:90:8b:a7:89:ff:e2:a7:ed:1c:ac:60:e5:da:
         1f:fd:9f:ff:87:53:f8:f5:28:80:29:34:6e:62:0c:36:7a:cd:
         45:1a:1c:b2:df:39:fc:3a:bc:9a:88:23:38:e0:71:eb:07:59:
         95:fc:1e:c3:26:6c:07:5f:fa:2d:c8:d6:9d:04:57:1f:be:7f:
         64:4c:7f:42:d9:84:ce:ab:04:24:4c:bd:f9:33:00:26:d9:8e:
         45:af:b2:f7:24:ab:72:55:fe:3b:6f:66:79:1c:7b:37:95:e5:
         87:2a:d0:6c:e3:41:6f:18:e5:5c:63:be:14:8c:19:ee:66:e2:
         7e:58:67:6b:c6:2d:bb:0c:13:eb:a3:d1:ad:f0:58:66:5e:0e:
         38:0f:fd:ac:4b:d8:ab:fe:40:8b:01:f8:80:aa:89:ac:ae:36:
         e1:0b:5e:64:39:90:e9:d9:e9:e7:02:5e:7b:1f:39:fd:fc:23:
         5f:30:29:be
-----BEGIN CERTIFICATE-----
MIIDdjCCAl6gAwIBAgIQaDnvR3dgmDWUN6nANsoI+TANBgkqhkiG9w0BAQsFADAT
MREwDwYDVQQDDAhDaGFuZ2VNZTAeFw0yMjA0MDQwNjM2NDJaFw0yNDA3MDcwNjM2
NDJaMCExHzAdBgNVBAMMFnZwbi1zZXJ2ZXIudnBuLmlibS5jb20wggEiMA0GCSqG
SIb3DQEBAQUAA4IBDwAwggEKAoIBAQDNRCtCDYFH6wAg1c+rOhuGbiBiaMkPB5Vj
Cc0SpXq0uJR8pwXnIHhb+pEPmLXUGjemVxV45iW4pdIXBpijaoqwrNamF8ogKRng
h7OnPgqR73ac185YnEv/MBSrBMGQxpFUr8FA+6XTzJ8d6YU9mWS1Dy9zGJboyS6B
wsBVJ/0JrqCwC0wZWPJjWOK3SKoAstGoiflv6U9cK2IKUqvn0Cw/fvwF+xWUlJAt
FEDCl1/2I0Ob2KOUzkF5H1srdidobA3uewP7qgXRB9a6ahkiuZOb5ZFJXV6EVMFU
YT/AnuFiO5RpDbkI2V0D68vTVOsSpViNpx+Ax8IOW2xOG8AmHty/AgMBAAGjgbcw
gbQwCQYDVR0TBAIwADAdBgNVHQ4EFgQUes4PqDPfR87Tag+is3NG07MIJEwwQwYD
VR0jBDwwOoAUM4Q2xG8nH6wiX7UMNpenUlf33QuhF6QVMBMxETAPBgNVBAMMCENo
YW5nZU1lggkAt4puL3d0wckwEwYDVR0lBAwwCgYIKwYBBQUHAwEwCwYDVR0PBAQD
AgWgMCEGA1UdEQQaMBiCFnZwbi1zZXJ2ZXIudnBuLmlibS5jb20wDQYJKoZIhvcN
AQELBQADggEBANEG1wxihRvf72lCTMhmM1/WO/TgPbl1+LflCa3xMMgJEL+oiWWM
6ZDMn3qNB+guWpIPsPBieFs9UMQCGw3OL/msunSqxz3KrlAmmrRgkIunif/ip+0c
rGDl2h/9n/+HU/j1KIApNG5iDDZ6zUUaHLLfOfw6vJqIIzjgcesHWZX8HsMmbAdf
+i3I1p0EVx++f2RMf0LZhM6rBCRMvfkzACbZjkWvsvckq3JV/jtvZnkcezeV5Ycq
0GzjQW8Y5VxjvhSMGe5m4n5YZ2vGLbsME+uj0a3wWGZeDjgP/axL2Kv+QIsB+ICq
iayuNuELXmQ5kOnZ6ecCXnsfOf38I18wKb4=
-----END CERTIFICATE-----
