Certificate:
    Data:
        Version: 3 (0x2)
        Serial Number:
            bb:74:2f:93:2f:8b:7a:57:8c:99:59:d7:db:9d:ff:1b
    Signature Algorithm: sha256WithRSAEncryption
        Issuer: CN=ChangeMe
        Validity
            Not Before: Apr  7 05:03:42 2022 GMT
            Not After : Jul 10 05:03:42 2024 GMT
        Subject: CN=vpn-server.vpn.ibm.com
        Subject Public Key Info:
            Public Key Algorithm: rsaEncryption
                Public-Key: (2048 bit)
                Modulus:
                    00:a3:e7:ff:02:59:56:4e:f2:47:f8:c4:1c:fb:ce:
                    e9:21:0d:a2:cf:ba:ce:72:6d:6b:9b:ee:4d:7d:6d:
                    c9:01:dd:41:45:18:b7:f2:00:5d:56:ef:c2:b1:15:
                    c0:53:bf:f6:87:ba:42:55:f3:cb:60:35:de:60:99:
                    8a:ca:2d:54:94:dc:33:f6:6e:de:66:2f:10:d0:43:
                    86:9a:ef:f8:b7:9e:96:33:88:9a:9d:ad:c1:f4:33:
                    e1:e6:db:e1:3b:b4:23:4b:72:09:8f:fd:e8:9a:ef:
                    90:09:33:54:cf:bd:89:8a:74:14:3b:f0:b5:07:35:
                    8a:2e:4d:17:6b:cf:12:fd:5e:46:d6:45:8e:1e:a8:
                    8e:09:79:ec:95:97:64:5c:4b:bf:43:8f:1d:5e:46:
                    54:94:64:43:91:9c:f0:61:bc:8c:8c:30:ac:42:86:
                    5d:c4:b2:11:10:e2:a6:f6:24:6b:63:d7:ab:79:84:
                    6c:29:0b:d4:74:7a:cb:c3:ff:c7:6c:7b:a4:1c:d7:
                    fe:87:eb:07:b4:8a:ec:57:59:c2:4d:b0:56:c4:0a:
                    fc:ef:96:c8:28:c5:21:31:15:f0:13:b5:0f:dc:f3:
                    92:a7:9a:69:51:ad:95:a3:c7:af:8c:c2:8f:bc:ea:
                    fc:5c:30:eb:7e:3d:4c:6a:62:d7:db:e2:c4:ff:2c:
                    37:33
                Exponent: 65537 (0x10001)
        X509v3 extensions:
            X509v3 Basic Constraints: 
                CA:FALSE
            X509v3 Subject Key Identifier: 
                11:57:9C:38:04:6D:1F:77:57:4D:53:3B:B6:20:00:6B:9C:A4:44:0D
            X509v3 Authority Key Identifier: 
                keyid:01:E5:C1:34:9D:15:6B:CB:80:2E:21:A7:B4:BB:3F:34:CC:6F:7E:64
                DirName:/CN=ChangeMe
                serial:EF:DE:DF:BC:CE:72:31:F3

            X509v3 Extended Key Usage: 
                TLS Web Server Authentication
            X509v3 Key Usage: 
                Digital Signature, Key Encipherment
            X509v3 Subject Alternative Name: 
                DNS:vpn-server.vpn.ibm.com
    Signature Algorithm: sha256WithRSAEncryption
         5e:92:f8:86:46:73:5c:26:e0:c1:b7:bf:58:82:a9:fa:54:ad:
         4e:4e:ff:71:0c:69:3b:55:c5:53:5f:f9:fc:18:e6:42:34:87:
         2e:5a:07:c1:1a:c2:92:8d:52:08:6e:5c:28:e7:48:8b:8b:13:
         33:3d:d8:07:32:3c:2d:b8:2a:ac:f2:6d:ea:07:00:f4:7c:91:
         ba:99:b2:6d:ef:65:d0:d8:d5:3b:02:fe:60:08:53:89:bf:7d:
         05:8d:05:f3:a8:94:51:92:7c:c8:90:c5:2c:f5:15:e3:ab:b4:
         6b:7f:27:06:65:79:2c:0a:fd:5b:b7:00:00:5d:75:23:8c:ca:
         88:21:81:f5:32:fb:d4:7e:46:02:f2:f2:ef:94:d1:c8:c6:bb:
         7a:0f:ba:9a:19:f5:0b:ce:0d:74:cb:10:ff:56:ef:98:39:24:
         38:9f:41:dd:e1:db:c2:ec:4f:19:b7:9d:fd:76:4c:f5:d9:bb:
         55:de:ec:ba:93:3d:65:b5:51:f5:58:24:28:54:3d:03:c2:a1:
         bc:29:72:c6:2a:90:6b:6c:cf:e3:1f:45:ea:8c:4a:9f:1e:6f:
         74:a6:3f:f9:01:66:c2:1a:d0:3c:eb:d8:d4:31:8f:3a:12:8b:
         6d:18:f1:87:3f:e8:59:5d:7a:ec:3d:3d:00:e5:5e:9e:e4:55:
         a1:7b:61:bb
-----BEGIN CERTIFICATE-----
MIIDdzCCAl+gAwIBAgIRALt0L5Mvi3pXjJlZ19ud/xswDQYJKoZIhvcNAQELBQAw
EzERMA8GA1UEAwwIQ2hhbmdlTWUwHhcNMjIwNDA3MDUwMzQyWhcNMjQwNzEwMDUw
MzQyWjAhMR8wHQYDVQQDDBZ2cG4tc2VydmVyLnZwbi5pYm0uY29tMIIBIjANBgkq
hkiG9w0BAQEFAAOCAQ8AMIIBCgKCAQEAo+f/AllWTvJH+MQc+87pIQ2iz7rOcm1r
m+5NfW3JAd1BRRi38gBdVu/CsRXAU7/2h7pCVfPLYDXeYJmKyi1UlNwz9m7eZi8Q
0EOGmu/4t56WM4iana3B9DPh5tvhO7QjS3IJj/3omu+QCTNUz72JinQUO/C1BzWK
Lk0Xa88S/V5G1kWOHqiOCXnslZdkXEu/Q48dXkZUlGRDkZzwYbyMjDCsQoZdxLIR
EOKm9iRrY9ereYRsKQvUdHrLw//HbHukHNf+h+sHtIrsV1nCTbBWxAr875bIKMUh
MRXwE7UP3POSp5ppUa2Vo8evjMKPvOr8XDDrfj1MamLX2+LE/yw3MwIDAQABo4G3
MIG0MAkGA1UdEwQCMAAwHQYDVR0OBBYEFBFXnDgEbR93V01TO7YgAGucpEQNMEMG
A1UdIwQ8MDqAFAHlwTSdFWvLgC4hp7S7PzTMb35koRekFTATMREwDwYDVQQDDAhD
aGFuZ2VNZYIJAO/e37zOcjHzMBMGA1UdJQQMMAoGCCsGAQUFBwMBMAsGA1UdDwQE
AwIFoDAhBgNVHREEGjAYghZ2cG4tc2VydmVyLnZwbi5pYm0uY29tMA0GCSqGSIb3
DQEBCwUAA4IBAQBekviGRnNcJuDBt79Ygqn6VK1OTv9xDGk7VcVTX/n8GOZCNIcu
WgfBGsKSjVIIblwo50iLixMzPdgHMjwtuCqs8m3qBwD0fJG6mbJt72XQ2NU7Av5g
CFOJv30FjQXzqJRRknzIkMUs9RXjq7RrfycGZXksCv1btwAAXXUjjMqIIYH1MvvU
fkYC8vLvlNHIxrt6D7qaGfULzg10yxD/Vu+YOSQ4n0Hd4dvC7E8Zt539dkz12btV
3uy6kz1ltVH1WCQoVD0DwqG8KXLGKpBrbM/jH0XqjEqfHm90pj/5AWbCGtA869jU
MY86EottGPGHP+hZXXrsPT0A5V6e5FWhe2G7
-----END CERTIFICATE-----
