Certificate:
    Data:
        Version: 3 (0x2)
        Serial Number:
            da:5f:15:84:a7:d3:7e:fa:a2:70:ab:1d:75:af:c3:27
    Signature Algorithm: sha256WithRSAEncryption
        Issuer: CN=ChangeMe
        Validity
            Not Before: Apr  7 05:03:42 2022 GMT
            Not After : Jul 10 05:03:42 2024 GMT
        Subject: CN=client1.vpn.ibm.com
        Subject Public Key Info:
            Public Key Algorithm: rsaEncryption
                Public-Key: (2048 bit)
                Modulus:
                    00:ea:65:34:a3:f2:ee:c2:0e:03:7d:93:61:05:43:
                    b6:27:47:98:bd:58:c8:3a:f0:d1:58:ef:3a:e9:e7:
                    a5:4a:eb:10:fa:15:26:f8:30:17:09:ca:c7:d1:5b:
                    ef:5b:61:e9:0c:15:10:fa:a8:f3:7e:9b:27:60:5d:
                    20:fb:27:58:f3:76:92:3c:11:d8:97:24:7b:28:7a:
                    a3:00:2b:9d:3e:a2:79:32:7a:95:04:0c:a0:40:19:
                    de:de:c9:17:7e:fe:7e:9c:63:bb:98:ff:c0:c0:32:
                    1b:52:c2:59:fe:36:7f:fe:a5:f6:6c:85:c4:1f:e0:
                    fd:35:0a:43:7e:0a:e3:c7:9d:07:cd:3c:0c:71:5b:
                    a1:03:9a:2a:79:4e:e6:cd:b1:64:31:f4:dd:15:27:
                    d9:37:db:b3:44:92:2c:59:dd:bb:d2:5f:50:9a:f7:
                    8f:5d:b2:5c:c2:5b:9f:6f:08:17:9b:95:64:16:0b:
                    a5:33:b6:bd:b0:e6:ca:52:08:89:29:00:23:60:c3:
                    44:72:b9:1b:ad:f8:8a:c2:4a:4f:45:47:44:87:f7:
                    41:9d:94:66:f5:9a:e8:74:d1:c3:d3:63:5f:9c:fb:
                    d4:60:ea:2f:83:a4:15:74:af:8b:81:ea:f4:bf:a5:
                    7f:9b:52:f6:38:5c:b4:3d:85:f9:96:cf:de:33:42:
                    44:85
                Exponent: 65537 (0x10001)
        X509v3 extensions:
            X509v3 Basic Constraints: 
                CA:FALSE
            X509v3 Subject Key Identifier: 
                30:A7:8B:76:42:FF:10:68:29:C2:E3:B9:7E:2F:09:7C:F6:33:A4:3C
            X509v3 Authority Key Identifier: 
                keyid:01:E5:C1:34:9D:15:6B:CB:80:2E:21:A7:B4:BB:3F:34:CC:6F:7E:64
                DirName:/CN=ChangeMe
                serial:EF:DE:DF:BC:CE:72:31:F3

            X509v3 Extended Key Usage: 
                TLS Web Client Authentication
            X509v3 Key Usage: 
                Digital Signature
    Signature Algorithm: sha256WithRSAEncryption
         0d:23:b9:5a:89:86:3f:14:f9:a6:e4:a1:49:1c:3e:8f:f6:7c:
         a3:e1:9b:fe:d6:8d:40:7a:a1:e9:3c:2b:cc:50:34:25:f9:ce:
         cb:ae:fc:15:4d:ab:a3:53:8a:10:fe:ef:0a:ed:48:ea:40:68:
         4c:3e:98:a1:fc:66:72:05:00:9d:c7:08:ec:20:11:0a:8a:0e:
         ec:ca:f9:72:3d:d2:63:a8:01:df:df:35:a9:03:99:ec:e6:7f:
         74:af:87:1a:69:18:9f:33:ce:79:83:c5:e7:7f:71:a9:24:3d:
         97:38:a3:84:63:82:3e:1e:db:9e:8d:fe:3e:e5:ca:8d:e2:e7:
         2d:ed:fb:65:6f:c2:b6:3b:90:7b:9e:f3:c5:d1:65:41:2f:aa:
         38:9a:43:26:29:45:31:b2:da:80:d7:7b:ae:49:89:eb:90:dc:
         c0:3a:38:19:87:5c:cb:dc:b4:51:80:6f:c3:94:a7:3f:31:30:
         dd:3c:16:75:57:c7:29:de:ae:55:d4:b8:4e:dc:c7:39:87:28:
         88:66:de:21:e6:fe:23:a2:ef:df:62:7b:c9:7d:6d:ea:e8:ff:
         9e:10:e6:93:12:e1:2f:9d:bf:88:66:c1:c5:55:aa:af:ca:47:
         9d:02:c7:ea:f2:b3:dc:9e:8e:d6:0d:8b:ef:eb:ea:62:ba:7c:
         cb:b2:b2:77
-----BEGIN CERTIFICATE-----
MIIDUTCCAjmgAwIBAgIRANpfFYSn0376onCrHXWvwycwDQYJKoZIhvcNAQELBQAw
EzERMA8GA1UEAwwIQ2hhbmdlTWUwHhcNMjIwNDA3MDUwMzQyWhcNMjQwNzEwMDUw
MzQyWjAeMRwwGgYDVQQDDBNjbGllbnQxLnZwbi5pYm0uY29tMIIBIjANBgkqhkiG
9w0BAQEFAAOCAQ8AMIIBCgKCAQEA6mU0o/Luwg4DfZNhBUO2J0eYvVjIOvDRWO86
6eelSusQ+hUm+DAXCcrH0VvvW2HpDBUQ+qjzfpsnYF0g+ydY83aSPBHYlyR7KHqj
ACudPqJ5MnqVBAygQBne3skXfv5+nGO7mP/AwDIbUsJZ/jZ//qX2bIXEH+D9NQpD
fgrjx50HzTwMcVuhA5oqeU7mzbFkMfTdFSfZN9uzRJIsWd270l9QmvePXbJcwluf
bwgXm5VkFgulM7a9sObKUgiJKQAjYMNEcrkbrfiKwkpPRUdEh/dBnZRm9ZrodNHD
02NfnPvUYOovg6QVdK+Lger0v6V/m1L2OFy0PYX5ls/eM0JEhQIDAQABo4GUMIGR
MAkGA1UdEwQCMAAwHQYDVR0OBBYEFDCni3ZC/xBoKcLjuX4vCXz2M6Q8MEMGA1Ud
IwQ8MDqAFAHlwTSdFWvLgC4hp7S7PzTMb35koRekFTATMREwDwYDVQQDDAhDaGFu
Z2VNZYIJAO/e37zOcjHzMBMGA1UdJQQMMAoGCCsGAQUFBwMCMAsGA1UdDwQEAwIH
gDANBgkqhkiG9w0BAQsFAAOCAQEADSO5WomGPxT5puShSRw+j/Z8o+Gb/taNQHqh
6TwrzFA0JfnOy678FU2ro1OKEP7vCu1I6kBoTD6YofxmcgUAnccI7CARCooO7Mr5
cj3SY6gB3981qQOZ7OZ/dK+HGmkYnzPOeYPF539xqSQ9lzijhGOCPh7bno3+PuXK
jeLnLe37ZW/CtjuQe57zxdFlQS+qOJpDJilFMbLagNd7rkmJ65DcwDo4GYdcy9y0
UYBvw5SnPzEw3TwWdVfHKd6uVdS4TtzHOYcoiGbeIeb+I6Lv32J7yX1t6uj/nhDm
kxLhL52/iGbBxVWqr8pHnQLH6vKz3J6O1g2L7+vqYrp8y7Kydw==
-----END CERTIFICATE-----
